; Function Attrs: mustprogress nofree norecurse nosync nounwind willreturn memory(argmem: readwrite) uwtable
define internal noundef zeroext i1 @"_ZNSt17_Function_handlerIFbRKN5Eigen6MatrixIdLin1ELin1ELi0ELin1ELin1EEERKNS1_IiLin1ELin1ELi0ELin1ELin1EEES7_RKNS1_IiLin1ELi1ELi0ELin1ELi1EEES7_S7_RKSt14priority_queueISt5tupleIJdiiEESt6vectorISD_SaISD_EESt7greaterISD_EESA_S4_iEZN3igl37qslim_optimal_collapse_edge_callbacksERS5_RSE_ISC_IJS2_NS1_IdLi1ELin1ELi1ELi1ELin1EEEdEESaISQ_EERiSU_RSt8functionIFviS4_S7_S7_SA_S7_S7_RdRSP_EERSV_ISM_ERSV_IFvS4_S7_S7_SA_S7_S7_SL_SA_S4_iiiiibEEE3$_1E10_M_managerERSt9_Any_dataRKS18_St18_Manager_operation"(ptr noundef nonnull writeonly align 8 captures(none) dereferenceable(16) %0, ptr noundef nonnull align 8 dereferenceable(16) %1, i32 noundef %2) #4 align 2 personality ptr @__gxx_personality_v0 {
  switch i32 %2, label %"_ZNSt14_Function_base13_Base_managerIZN3igl37qslim_optimal_collapse_edge_callbacksERN5Eigen6MatrixIiLin1ELin1ELi0ELin1ELin1EEERSt6vectorISt5tupleIJNS3_IdLin1ELin1ELi0ELin1ELin1EEENS3_IdLi1ELin1ELi1ELi1ELin1EEEdEESaISA_EERiSE_RSt8functionIFviRKS8_RKS4_SJ_RKNS3_IiLin1ELi1ELi0ELin1ELi1EEESJ_SJ_RdRS9_EERSF_IFbSH_SJ_SJ_SM_SJ_SJ_RKSt14priority_queueIS7_IJdiiEES6_IST_SaIST_EESt7greaterIST_EESM_SH_iEERSF_IFvSH_SJ_SJ_SM_SJ_SJ_S10_SM_SH_iiiiibEEE3$_1E10_M_managerERSt9_Any_dataRKS19_St18_Manager_operation.exit" [
    i32 0, label %4
    i32 1, label %5
    i32 2, label %6
  ]

4:                                                ; preds = %3
  store ptr @"_ZTIZN3igl37qslim_optimal_collapse_edge_callbacksERN5Eigen6MatrixIiLin1ELin1ELi0ELin1ELin1EEERSt6vectorISt5tupleIJNS1_IdLin1ELin1ELi0ELin1ELin1EEENS1_IdLi1ELin1ELi1ELi1ELin1EEEdEESaIS8_EERiSC_RSt8functionIFviRKS6_RKS2_SH_RKNS1_IiLin1ELi1ELi0ELin1ELi1EEESH_SH_RdRS7_EERSD_IFbSF_SH_SH_SK_SH_SH_RKSt14priority_queueIS5_IJdiiEES4_ISR_SaISR_EESt7greaterISR_EESK_SF_iEERSD_IFvSF_SH_SH_SK_SH_SH_SY_SK_SF_iiiiibEEE3$_1", ptr %0, align 8, !tbaa !45
  br label %"_ZNSt14_Function_base13_Base_managerIZN3igl37qslim_optimal_collapse_edge_callbacksERN5Eigen6MatrixIiLin1ELin1ELi0ELin1ELin1EEERSt6vectorISt5tupleIJNS3_IdLin1ELin1ELi0ELin1ELin1EEENS3_IdLi1ELin1ELi1ELi1ELin1EEEdEESaISA_EERiSE_RSt8functionIFviRKS8_RKS4_SJ_RKNS3_IiLin1ELi1ELi0ELin1ELi1EEESJ_SJ_RdRS9_EERSF_IFbSH_SJ_SJ_SM_SJ_SJ_RKSt14priority_queueIS7_IJdiiEES6_IST_SaIST_EESt7greaterIST_EESM_SH_iEERSF_IFvSH_SJ_SJ_SM_SJ_SJ_S10_SM_SH_iiiiibEEE3$_1E10_M_managerERSt9_Any_dataRKS19_St18_Manager_operation.exit"

5:                                                ; preds = %3
  store ptr %1, ptr %0, align 8, !tbaa !11
  br label %"_ZNSt14_Function_base13_Base_managerIZN3igl37qslim_optimal_collapse_edge_callbacksERN5Eigen6MatrixIiLin1ELin1ELi0ELin1ELin1EEERSt6vectorISt5tupleIJNS3_IdLin1ELin1ELi0ELin1ELin1EEENS3_IdLi1ELin1ELi1ELi1ELin1EEEdEESaISA_EERiSE_RSt8functionIFviRKS8_RKS4_SJ_RKNS3_IiLin1ELi1ELi0ELin1ELi1EEESJ_SJ_RdRS9_EERSF_IFbSH_SJ_SJ_SM_SJ_SJ_RKSt14priority_queueIS7_IJdiiEES6_IST_SaIST_EESt7greaterIST_EESM_SH_iEERSF_IFvSH_SJ_SJ_SM_SJ_SJ_S10_SM_SH_iiiiibEEE3$_1E10_M_managerERSt9_Any_dataRKS19_St18_Manager_operation.exit"

6:                                                ; preds = %3
  tail call void @llvm.memcpy.p0.p0.i64(ptr noundef nonnull align 8 dereferenceable(16) %0, ptr noundef nonnull readonly align 8 dereferenceable(16) %1, i64 16, i1 false), !tbaa.struct !431
  br label %"_ZNSt14_Function_base13_Base_managerIZN3igl37qslim_optimal_collapse_edge_callbacksERN5Eigen6MatrixIiLin1ELin1ELi0ELin1ELin1EEERSt6vectorISt5tupleIJNS3_IdLin1ELin1ELi0ELin1ELin1EEENS3_IdLi1ELin1ELi1ELi1ELin1EEEdEESaISA_EERiSE_RSt8functionIFviRKS8_RKS4_SJ_RKNS3_IiLin1ELi1ELi0ELin1ELi1EEESJ_SJ_RdRS9_EERSF_IFbSH_SJ_SJ_SM_SJ_SJ_RKSt14priority_queueIS7_IJdiiEES6_IST_SaIST_EESt7greaterIST_EESM_SH_iEERSF_IFvSH_SJ_SJ_SM_SJ_SJ_S10_SM_SH_iiiiibEEE3$_1E10_M_managerERSt9_Any_dataRKS19_St18_Manager_operation.exit"

"_ZNSt14_Function_base13_Base_managerIZN3igl37qslim_optimal_collapse_edge_callbacksERN5Eigen6MatrixIiLin1ELin1ELi0ELin1ELin1EEERSt6vectorISt5tupleIJNS3_IdLin1ELin1ELi0ELin1ELin1EEENS3_IdLi1ELin1ELi1ELi1ELin1EEEdEESaISA_EERiSE_RSt8functionIFviRKS8_RKS4_SJ_RKNS3_IiLin1ELi1ELi0ELin1ELi1EEESJ_SJ_RdRS9_EERSF_IFbSH_SJ_SJ_SM_SJ_SJ_RKSt14priority_queueIS7_IJdiiEES6_IST_SaIST_EESt7greaterIST_EESM_SH_iEERSF_IFvSH_SJ_SJ_SM_SJ_SJ_S10_SM_SH_iiiiibEEE3$_1E10_M_managerERSt9_Any_dataRKS19_St18_Manager_operation.exit": ; preds = %3, %6, %5, %4
  ret i1 false
}